; Function Attrs: nounwind uwtable
define internal i32 @tt_face_goto_table(ptr nocapture noundef readonly %0, i64 noundef %1, ptr noundef %2, ptr noundef writeonly %3) #0 {
  %5 = getelementptr i8, ptr %0, i64 288
  %.val = load i16, ptr %5, align 8
  %6 = getelementptr i8, ptr %0, i64 296
  %.val11 = load ptr, ptr %6, align 8
  %7 = zext i16 %.val to i64
  %8 = getelementptr inbounds %struct.TT_TableRec_, ptr %.val11, i64 %7
  %.not4.i = icmp eq i16 %.val, 0
  br i1 %.not4.i, label %tt_face_lookup_table.exit.thread, label %.lr.ph.i

.lr.ph.i:                                         ; preds = %4, %14
  %.0101.i = phi ptr [ %15, %14 ], [ %.val11, %4 ]
  %9 = load i64, ptr %.0101.i, align 8
  %10 = icmp eq i64 %9, %1
  br i1 %10, label %11, label %14

11:                                               ; preds = %.lr.ph.i
  %12 = getelementptr inbounds i8, ptr %.0101.i, i64 24
  %13 = load i64, ptr %12, align 8
  %.not.i = icmp eq i64 %13, 0
  br i1 %.not.i, label %14, label %tt_face_lookup_table.exit

14:                                               ; preds = %11, %.lr.ph.i
  %15 = getelementptr inbounds i8, ptr %.0101.i, i64 32
  %16 = icmp ult ptr %15, %8
  br i1 %16, label %.lr.ph.i, label %tt_face_lookup_table.exit.thread, !llvm.loop !41

tt_face_lookup_table.exit:                        ; preds = %11
  %.not10 = icmp eq ptr %3, null
  br i1 %.not10, label %18, label %17

17:                                               ; preds = %tt_face_lookup_table.exit
  store i64 %13, ptr %3, align 8
  br label %18

18:                                               ; preds = %17, %tt_face_lookup_table.exit
  %19 = getelementptr inbounds i8, ptr %.0101.i, i64 16
  %20 = load i64, ptr %19, align 8
  %21 = tail call i32 @FT_Stream_Seek(ptr noundef %2, i64 noundef %20) #26
  br label %tt_face_lookup_table.exit.thread

tt_face_lookup_table.exit.thread:                 ; preds = %14, %4, %18
  %.0 = phi i32 [ %21, %18 ], [ 142, %4 ], [ 142, %14 ]
  ret i32 %.0
}